target datalayout = "e-m:e-p270:32:32-p271:32:32-p272:64:64-i64:64-i128:128-f80:128-n8:16:32:64-S128"
target triple = "x86_64-pc-linux-gnu"

%struct._object = type { %union.anon, ptr }
%union.anon = type { i64 }
%struct.anon = type { i32, i32 }

@PyExc_StopIteration = external global ptr, align 8
@_Py_NoneStruct = external global %struct._object, align 8
@PyExc_StopAsyncIteration = external global ptr, align 8

; Function Attrs: alwaysinline nounwind uwtable
define internal i32 @_Py_IsImmortal(ptr noundef %0) #3 {
  %2 = alloca ptr, align 8
  store ptr %0, ptr %2, align 8, !tbaa !11
  %3 = load ptr, ptr %2, align 8, !tbaa !11
  %4 = getelementptr inbounds nuw %struct._object, ptr %3, i32 0, i32 0
  %5 = getelementptr inbounds nuw %struct.anon, ptr %4, i32 0, i32 0
  %6 = load i32, ptr %5, align 8, !tbaa !13
  %7 = icmp slt i32 %6, 0
  %8 = zext i1 %7 to i32
  ret i32 %8
}

; Function Attrs: inlinehint nounwind uwtable
define internal ptr @_Py_TYPE(ptr noundef %0) #2 {
  %2 = alloca ptr, align 8
  store ptr %0, ptr %2, align 8, !tbaa !11
  %3 = load ptr, ptr %2, align 8, !tbaa !11
  %4 = getelementptr inbounds nuw %struct._object, ptr %3, i32 0, i32 1
  %5 = load ptr, ptr %4, align 8, !tbaa !92
  ret ptr %5
}

; Function Attrs: alwaysinline nounwind uwtable
define internal void @Py_DECREF(ptr noundef %0) #3 {
  %2 = alloca ptr, align 8
  store ptr %0, ptr %2, align 8, !tbaa !11
  %3 = load ptr, ptr %2, align 8, !tbaa !11
  %4 = call i32 @_Py_IsImmortal(ptr noundef %3)
  %5 = icmp ne i32 %4, 0
  br i1 %5, label %6, label %7

6:                                                ; preds = %1
  br label %16

7:                                                ; preds = %1
  %8 = load ptr, ptr %2, align 8, !tbaa !11
  %9 = getelementptr inbounds nuw %struct._object, ptr %8, i32 0, i32 0
  %10 = getelementptr inbounds nuw %struct.anon, ptr %9, i32 0, i32 0
  %11 = load i32, ptr %10, align 8, !tbaa !13
  %12 = add i32 %11, -1
  store i32 %12, ptr %10, align 8, !tbaa !13
  %13 = icmp eq i32 %12, 0
  br i1 %13, label %14, label %16

14:                                               ; preds = %7
  %15 = load ptr, ptr %2, align 8, !tbaa !11
  call void @_Py_Dealloc(ptr noundef %15)
  br label %16

16:                                               ; preds = %6, %14, %7
  ret void
}

; Function Attrs: nounwind uwtable
define dso_local i32 @_PyGen_SetStopIterationValue(ptr noundef %0) #0 {
  %2 = alloca i32, align 4
  %3 = alloca ptr, align 8
  %4 = alloca ptr, align 8
  %5 = alloca i32, align 4
  store ptr %0, ptr %3, align 8, !tbaa !11
  call void @llvm.lifetime.start.p0(i64 8, ptr %4) #7
  %6 = load ptr, ptr %3, align 8, !tbaa !11
  %7 = icmp eq ptr %6, null
  br i1 %7, label %8, label %11

8:                                                ; preds = %1
  %9 = load ptr, ptr @PyExc_StopIteration, align 8, !tbaa !11
  %10 = call ptr @PyObject_CallNoArgs(ptr noundef %9)
  br label %15

11:                                               ; preds = %1
  %12 = load ptr, ptr @PyExc_StopIteration, align 8, !tbaa !11
  %13 = load ptr, ptr %3, align 8, !tbaa !11
  %14 = call ptr @PyObject_CallOneArg(ptr noundef %12, ptr noundef %13)
  br label %15

15:                                               ; preds = %11, %8
  %16 = phi ptr [ %10, %8 ], [ %14, %11 ]
  store ptr %16, ptr %4, align 8, !tbaa !11
  %17 = load ptr, ptr %4, align 8, !tbaa !11
  %18 = icmp eq ptr %17, null
  br i1 %18, label %19, label %20

19:                                               ; preds = %15
  store i32 -1, ptr %2, align 4
  store i32 1, ptr %5, align 4
  br label %22

20:                                               ; preds = %15
  %21 = load ptr, ptr %4, align 8, !tbaa !11
  call void @PyErr_SetRaisedException(ptr noundef %21)
  store i32 0, ptr %2, align 4
  store i32 1, ptr %5, align 4
  br label %22

22:                                               ; preds = %20, %19
  call void @llvm.lifetime.end.p0(i64 8, ptr %4) #7
  %23 = load i32, ptr %2, align 4
  ret i32 %23
}

; Function Attrs: inlinehint nounwind uwtable
define internal i32 @Py_IS_TYPE(ptr noundef %0, ptr noundef %1) #2 {
  %3 = alloca ptr, align 8
  %4 = alloca ptr, align 8
  store ptr %0, ptr %3, align 8, !tbaa !11
  store ptr %1, ptr %4, align 8, !tbaa !36
  %5 = load ptr, ptr %3, align 8, !tbaa !11
  %6 = call ptr @_Py_TYPE(ptr noundef %5)
  %7 = load ptr, ptr %4, align 8, !tbaa !36
  %8 = icmp eq ptr %6, %7
  %9 = zext i1 %8 to i32
  ret i32 %9
}

; Function Attrs: nounwind uwtable
define internal ptr @gen_send_ex(ptr noundef %0, ptr noundef %1, i32 noundef %2, i32 noundef %3) #0 {
  %5 = alloca ptr, align 8
  %6 = alloca ptr, align 8
  %7 = alloca i32, align 4
  %8 = alloca i32, align 4
  %9 = alloca ptr, align 8
  %10 = alloca ptr, align 8
  %11 = alloca ptr, align 8
  store ptr %0, ptr %5, align 8, !tbaa !4
  store ptr %1, ptr %6, align 8, !tbaa !11
  store i32 %2, ptr %7, align 4, !tbaa !14
  store i32 %3, ptr %8, align 4, !tbaa !14
  call void @llvm.lifetime.start.p0(i64 8, ptr %9) #7
  %12 = load ptr, ptr %5, align 8, !tbaa !4
  %13 = load ptr, ptr %6, align 8, !tbaa !11
  %14 = load i32, ptr %7, align 4, !tbaa !14
  %15 = load i32, ptr %8, align 4, !tbaa !14
  %16 = call i32 @gen_send_ex2(ptr noundef %12, ptr noundef %13, ptr noundef %9, i32 noundef %14, i32 noundef %15)
  %17 = icmp eq i32 %16, 0
  br i1 %17, label %18, label %45

18:                                               ; preds = %4
  %19 = load ptr, ptr %5, align 8, !tbaa !4
  %20 = call i32 @Py_IS_TYPE(ptr noundef %19, ptr noundef @PyAsyncGen_Type)
  %21 = icmp ne i32 %20, 0
  br i1 %21, label %22, label %24

22:                                               ; preds = %18
  %23 = load ptr, ptr @PyExc_StopAsyncIteration, align 8, !tbaa !11
  call void @PyErr_SetNone(ptr noundef %23)
  br label %33

24:                                               ; preds = %18
  %25 = load ptr, ptr %9, align 8, !tbaa !11
  %26 = icmp eq ptr %25, @_Py_NoneStruct
  br i1 %26, label %27, label %29

27:                                               ; preds = %24
  %28 = load ptr, ptr @PyExc_StopIteration, align 8, !tbaa !11
  call void @PyErr_SetNone(ptr noundef %28)
  br label %32

29:                                               ; preds = %24
  %30 = load ptr, ptr %9, align 8, !tbaa !11
  %31 = call i32 @_PyGen_SetStopIterationValue(ptr noundef %30)
  br label %32

32:                                               ; preds = %29, %27
  br label %33

33:                                               ; preds = %32, %22
  br label %34

34:                                               ; preds = %33
  call void @llvm.lifetime.start.p0(i64 8, ptr %10) #7
  store ptr %9, ptr %10, align 8, !tbaa !43
  call void @llvm.lifetime.start.p0(i64 8, ptr %11) #7
  %35 = load ptr, ptr %10, align 8, !tbaa !43
  %36 = load ptr, ptr %35, align 8, !tbaa !11
  store ptr %36, ptr %11, align 8, !tbaa !11
  %37 = load ptr, ptr %11, align 8, !tbaa !11
  %38 = icmp ne ptr %37, null
  br i1 %38, label %39, label %42

39:                                               ; preds = %34
  %40 = load ptr, ptr %10, align 8, !tbaa !43
  store ptr null, ptr %40, align 8, !tbaa !11
  %41 = load ptr, ptr %11, align 8, !tbaa !11
  call void @Py_DECREF(ptr noundef %41)
  br label %42

42:                                               ; preds = %39, %34
  call void @llvm.lifetime.end.p0(i64 8, ptr %11) #7
  call void @llvm.lifetime.end.p0(i64 8, ptr %10) #7
  br label %43

43:                                               ; preds = %42
  br label %44

44:                                               ; preds = %43
  br label %45

45:                                               ; preds = %44, %4
  %46 = load ptr, ptr %9, align 8, !tbaa !11
  call void @llvm.lifetime.end.p0(i64 8, ptr %9) #7
  ret ptr %46
}