; Function Attrs: nounwind uwtable
define internal fastcc ptr @gen_send_ex(ptr noundef %0, ptr noundef %1, i32 noundef range(i32 0, 2) %2, i32 noundef range(i32 0, 2) %3) unnamed_addr #2 {
  %5 = alloca ptr, align 8
  call void @llvm.lifetime.start.p0(i64 8, ptr nonnull %5) #8
  %6 = call fastcc i32 @gen_send_ex2(ptr noundef %0, ptr noundef %1, ptr noundef nonnull %5, i32 noundef %2, i32 noundef %3)
  %7 = icmp eq i32 %6, 0
  br i1 %7, label %8, label %Py_DECREF.exit

8:                                                ; preds = %4
  %9 = getelementptr i8, ptr %0, i64 8
  %.val = load ptr, ptr %9, align 8, !tbaa !20
  %.not = icmp eq ptr %.val, @PyAsyncGen_Type
  br i1 %.not, label %10, label %12

10:                                               ; preds = %8
  %11 = load ptr, ptr @PyExc_StopAsyncIteration, align 8, !tbaa !32
  tail call void @PyErr_SetNone(ptr noundef %11) #8
  %.pr.pre = load ptr, ptr %5, align 8, !tbaa !32
  br label %_PyGen_SetStopIterationValue.exit

12:                                               ; preds = %8
  %13 = load ptr, ptr %5, align 8, !tbaa !32
  %14 = icmp eq ptr %13, @_Py_NoneStruct
  br i1 %14, label %_PyGen_SetStopIterationValue.exit.thread, label %16

_PyGen_SetStopIterationValue.exit.thread:         ; preds = %12
  %15 = load ptr, ptr @PyExc_StopIteration, align 8, !tbaa !32
  tail call void @PyErr_SetNone(ptr noundef %15) #8
  br label %27

16:                                               ; preds = %12
  %17 = icmp eq ptr %13, null
  %18 = load ptr, ptr @PyExc_StopIteration, align 8, !tbaa !32
  br i1 %17, label %19, label %21

19:                                               ; preds = %16
  %20 = tail call ptr @PyObject_CallNoArgs(ptr noundef %18) #8
  br label %23

21:                                               ; preds = %16
  %22 = tail call ptr @PyObject_CallOneArg(ptr noundef %18, ptr noundef nonnull %13) #8
  br label %23

23:                                               ; preds = %21, %19
  %24 = phi ptr [ %20, %19 ], [ %22, %21 ]
  %25 = icmp eq ptr %24, null
  br i1 %25, label %_PyGen_SetStopIterationValue.exit, label %26

26:                                               ; preds = %23
  tail call void @PyErr_SetRaisedException(ptr noundef nonnull %24) #8
  br label %_PyGen_SetStopIterationValue.exit

_PyGen_SetStopIterationValue.exit:                ; preds = %26, %23, %10
  %.pr = phi ptr [ %13, %26 ], [ %13, %23 ], [ %.pr.pre, %10 ]
  %.not9 = icmp eq ptr %.pr, null
  br i1 %.not9, label %Py_DECREF.exit, label %27

27:                                               ; preds = %_PyGen_SetStopIterationValue.exit.thread, %_PyGen_SetStopIterationValue.exit
  %28 = phi ptr [ @_Py_NoneStruct, %_PyGen_SetStopIterationValue.exit.thread ], [ %.pr, %_PyGen_SetStopIterationValue.exit ]
  store ptr null, ptr %5, align 8, !tbaa !32
  %29 = load i32, ptr %28, align 8, !tbaa !4
  %.not.i = icmp sgt i32 %29, -1
  br i1 %.not.i, label %30, label %Py_DECREF.exit

30:                                               ; preds = %27
  %31 = add nsw i32 %29, -1
  store i32 %31, ptr %28, align 8, !tbaa !4
  %32 = icmp eq i32 %31, 0
  br i1 %32, label %33, label %Py_DECREF.exit

33:                                               ; preds = %30
  tail call void @_Py_Dealloc(ptr noundef nonnull %28) #8
  br label %Py_DECREF.exit

Py_DECREF.exit:                                   ; preds = %33, %30, %27, %_PyGen_SetStopIterationValue.exit, %4
  %34 = load ptr, ptr %5, align 8, !tbaa !32
  call void @llvm.lifetime.end.p0(i64 8, ptr nonnull %5) #8
  ret ptr %34
}